; Function Attrs: mustprogress uwtable
define noundef zeroext i1 @_ZN3net12CryptoFramer12ProcessInputEN4base16BasicStringPieceINSt7__cxx1112basic_stringIcSt11char_traitsIcESaIcEEEEE(ptr noundef nonnull align 8 dereferenceable(208) %0, ptr %1, i64 %2) local_unnamed_addr #0 align 2 personality ptr @__gxx_personality_v0 {
  %4 = getelementptr inbounds nuw i8, ptr %0, i64 16
  %5 = load i32, ptr %4, align 8, !tbaa !47
  %.not = icmp eq i32 %5, 0
  br i1 %.not, label %6, label %14

6:                                                ; preds = %3
  %7 = tail call noundef i32 @_ZN3net12CryptoFramer7ProcessEN4base16BasicStringPieceINSt7__cxx1112basic_stringIcSt11char_traitsIcESaIcEEEEE(ptr noundef nonnull align 8 dereferenceable(208) %0, ptr %1, i64 %2)
  store i32 %7, ptr %4, align 8, !tbaa !47
  %.not4 = icmp eq i32 %7, 0
  br i1 %.not4, label %14, label %8

8:                                                ; preds = %6
  %9 = getelementptr inbounds nuw i8, ptr %0, i64 8
  %10 = load ptr, ptr %9, align 8, !tbaa !6
  %11 = load ptr, ptr %10, align 8, !tbaa !3
  %12 = getelementptr inbounds nuw i8, ptr %11, i64 16
  %13 = load ptr, ptr %12, align 8
  tail call void %13(ptr noundef nonnull align 8 dereferenceable(8) %10, ptr noundef nonnull %0)
  br label %14

14:                                               ; preds = %6, %3, %8
  %.0 = phi i1 [ false, %8 ], [ false, %3 ], [ true, %6 ]
  ret i1 %.0
}